target datalayout = "e-m:e-p270:32:32-p271:32:32-p272:64:64-i64:64-i128:128-f80:128-n8:16:32:64-S128"
target triple = "x86_64-pc-linux-gnu"

%"class.std::__1::mutex" = type { %union.pthread_mutex_t }
%union.pthread_mutex_t = type { %struct.__pthread_mutex_s }
%struct.__pthread_mutex_s = type { i32, i32, i32, i32, i32, i16, i16, %struct.__pthread_internal_list }
%struct.__pthread_internal_list = type { ptr, ptr }
%"class.std::__1::condition_variable" = type { %union.pthread_cond_t }
%union.pthread_cond_t = type { %struct.__pthread_cond_s }
%struct.__pthread_cond_s = type { %union.__atomic_wide_counter, %union.__atomic_wide_counter, [2 x i32], [2 x i32], i32, i32, [2 x i32] }
%union.__atomic_wide_counter = type { i64 }
%"class.std::__1::unique_lock" = type <{ ptr, i8, [7 x i8] }>
%"class.std::__1::recursive_timed_mutex" = type { %"class.std::__1::mutex", %"class.std::__1::condition_variable", i64, %"class.std::__1::__thread_id" }
%"class.std::__1::__thread_id" = type { i64 }

@.str = private unnamed_addr constant [18 x i8] c"mutex lock failed\00", align 1
@.str.4 = private unnamed_addr constant [32 x i8] c"unique_lock::unlock: not locked\00", align 1

; Function Attrs: inlinehint mustprogress nounwind uwtable
define linkonce_odr hidden noundef i32 @_ZNSt3__121__libcpp_mutex_unlockB8ne210000EP15pthread_mutex_t(ptr noundef %0) #2 comdat {
  %2 = alloca ptr, align 8
  store ptr %0, ptr %2, align 8, !tbaa !12
  %3 = load ptr, ptr %2, align 8, !tbaa !12
  %4 = call i32 @pthread_mutex_unlock(ptr noundef %3) #11
  ret i32 %4
}

; Function Attrs: inlinehint mustprogress nounwind uwtable
define linkonce_odr hidden noundef i32 @_ZNSt3__119__libcpp_mutex_lockB8ne210000EP15pthread_mutex_t(ptr noundef %0) #2 comdat {
  %2 = alloca ptr, align 8
  store ptr %0, ptr %2, align 8, !tbaa !12
  %3 = load ptr, ptr %2, align 8, !tbaa !12
  %4 = call i32 @pthread_mutex_lock(ptr noundef %3) #11
  ret i32 %4
}

; Function Attrs: mustprogress nounwind uwtable
define dso_local void @_ZNSt3__15mutex6unlockEv(ptr noundef nonnull align 8 dereferenceable(40) %0) #4 align 2 personality ptr @__gxx_personality_v0 {
  %2 = alloca ptr, align 8
  %3 = alloca i32, align 4
  store ptr %0, ptr %2, align 8, !tbaa !5
  %4 = load ptr, ptr %2, align 8
  call void @llvm.lifetime.start.p0(i64 4, ptr %3) #11
  %5 = getelementptr inbounds nuw %"class.std::__1::mutex", ptr %4, i32 0, i32 0
  %6 = invoke noundef i32 @_ZNSt3__121__libcpp_mutex_unlockB8ne210000EP15pthread_mutex_t(ptr noundef %5)
          to label %7 unwind label %8

7:                                                ; preds = %1
  store i32 %6, ptr %3, align 4, !tbaa !10
  call void @llvm.lifetime.end.p0(i64 4, ptr %3) #11
  ret void

8:                                                ; preds = %1
  %9 = landingpad { ptr, i32 }
          catch ptr null
  %10 = extractvalue { ptr, i32 } %9, 0
  call void @__clang_call_terminate(ptr %10) #13
  unreachable
}

; Function Attrs: mustprogress uwtable
define dso_local void @_ZNSt3__15mutex4lockEv(ptr noundef nonnull align 8 dereferenceable(40) %0) #0 align 2 {
  %2 = alloca ptr, align 8
  %3 = alloca i32, align 4
  store ptr %0, ptr %2, align 8, !tbaa !5
  %4 = load ptr, ptr %2, align 8
  call void @llvm.lifetime.start.p0(i64 4, ptr %3) #11
  %5 = getelementptr inbounds nuw %"class.std::__1::mutex", ptr %4, i32 0, i32 0
  %6 = call noundef i32 @_ZNSt3__119__libcpp_mutex_lockB8ne210000EP15pthread_mutex_t(ptr noundef %5)
  store i32 %6, ptr %3, align 4, !tbaa !10
  %7 = load i32, ptr %3, align 4, !tbaa !10
  %8 = icmp ne i32 %7, 0
  br i1 %8, label %9, label %11

9:                                                ; preds = %1
  %10 = load i32, ptr %3, align 4, !tbaa !10
  call void @_ZNSt3__120__throw_system_errorEiPKc(i32 noundef %10, ptr noundef @.str) #12
  unreachable

11:                                               ; preds = %1
  call void @llvm.lifetime.end.p0(i64 4, ptr %3) #11
  ret void
}

; Function Attrs: mustprogress nounwind uwtable
define linkonce_odr hidden void @_ZNSt3__111unique_lockINS_5mutexEED2B8ne210000Ev(ptr noundef nonnull align 8 dereferenceable(9) %0) unnamed_addr #4 comdat align 2 {
  %2 = alloca ptr, align 8
  store ptr %0, ptr %2, align 8, !tbaa !37
  %3 = load ptr, ptr %2, align 8
  %4 = getelementptr inbounds nuw %"class.std::__1::unique_lock", ptr %3, i32 0, i32 1
  %5 = load i8, ptr %4, align 8, !tbaa !41, !range !33, !noundef !34
  %6 = trunc i8 %5 to i1
  br i1 %6, label %7, label %10

7:                                                ; preds = %1
  %8 = getelementptr inbounds nuw %"class.std::__1::unique_lock", ptr %3, i32 0, i32 0
  %9 = load ptr, ptr %8, align 8, !tbaa !39
  call void @_ZNSt3__15mutex6unlockEv(ptr noundef nonnull align 8 dereferenceable(40) %9) #11
  br label %10

10:                                               ; preds = %7, %1
  ret void
}

; Function Attrs: mustprogress uwtable
define linkonce_odr hidden void @_ZNSt3__111unique_lockINS_5mutexEE6unlockB8ne210000Ev(ptr noundef nonnull align 8 dereferenceable(9) %0) #0 comdat align 2 {
  %2 = alloca ptr, align 8
  store ptr %0, ptr %2, align 8, !tbaa !37
  %3 = load ptr, ptr %2, align 8
  %4 = getelementptr inbounds nuw %"class.std::__1::unique_lock", ptr %3, i32 0, i32 1
  %5 = load i8, ptr %4, align 8, !tbaa !41, !range !33, !noundef !34
  %6 = trunc i8 %5 to i1
  br i1 %6, label %8, label %7

7:                                                ; preds = %1
  call void @_ZNSt3__120__throw_system_errorEiPKc(i32 noundef 1, ptr noundef @.str.4) #12
  unreachable

8:                                                ; preds = %1
  %9 = getelementptr inbounds nuw %"class.std::__1::unique_lock", ptr %3, i32 0, i32 0
  %10 = load ptr, ptr %9, align 8, !tbaa !39
  call void @_ZNSt3__15mutex6unlockEv(ptr noundef nonnull align 8 dereferenceable(40) %10) #11
  %11 = getelementptr inbounds nuw %"class.std::__1::unique_lock", ptr %3, i32 0, i32 1
  store i8 0, ptr %11, align 8, !tbaa !41
  ret void
}

; Function Attrs: mustprogress nounwind uwtable
define linkonce_odr hidden void @_ZNSt3__111__thread_id7__resetB8ne210000Ev(ptr noundef nonnull align 8 dereferenceable(8) %0) #4 comdat align 2 {
  %2 = alloca ptr, align 8
  store ptr %0, ptr %2, align 8, !tbaa !48
  %3 = load ptr, ptr %2, align 8
  %4 = getelementptr inbounds nuw %"class.std::__1::__thread_id", ptr %3, i32 0, i32 0
  store i64 0, ptr %4, align 8, !tbaa !50
  ret void
}

; Function Attrs: mustprogress uwtable
define linkonce_odr hidden void @_ZNSt3__111unique_lockINS_5mutexEEC2B8ne210000ERS1_(ptr noundef nonnull align 8 dereferenceable(9) %0, ptr noundef nonnull align 8 dereferenceable(40) %1) unnamed_addr #0 comdat align 2 {
  %3 = alloca ptr, align 8
  %4 = alloca ptr, align 8
  store ptr %0, ptr %3, align 8, !tbaa !37
  store ptr %1, ptr %4, align 8, !tbaa !5
  %5 = load ptr, ptr %3, align 8
  %6 = getelementptr inbounds nuw %"class.std::__1::unique_lock", ptr %5, i32 0, i32 0
  %7 = load ptr, ptr %4, align 8, !tbaa !5
  store ptr %7, ptr %6, align 8, !tbaa !39
  %8 = getelementptr inbounds nuw %"class.std::__1::unique_lock", ptr %5, i32 0, i32 1
  store i8 1, ptr %8, align 8, !tbaa !41
  %9 = getelementptr inbounds nuw %"class.std::__1::unique_lock", ptr %5, i32 0, i32 0
  %10 = load ptr, ptr %9, align 8, !tbaa !39
  call void @_ZNSt3__15mutex4lockEv(ptr noundef nonnull align 8 dereferenceable(40) %10)
  ret void
}

; Function Attrs: mustprogress nounwind uwtable
define dso_local void @_ZNSt3__121recursive_timed_mutex6unlockEv(ptr noundef nonnull align 8 dereferenceable(104) %0) #4 align 2 personality ptr @__gxx_personality_v0 {
  %2 = alloca ptr, align 8
  %3 = alloca %"class.std::__1::unique_lock", align 8
  store ptr %0, ptr %2, align 8, !tbaa !42
  %4 = load ptr, ptr %2, align 8
  call void @llvm.lifetime.start.p0(i64 16, ptr %3) #11
  %5 = getelementptr inbounds nuw %"class.std::__1::recursive_timed_mutex", ptr %4, i32 0, i32 0
  invoke void @_ZNSt3__111unique_lockINS_5mutexEEC2B8ne210000ERS1_(ptr noundef nonnull align 8 dereferenceable(9) %3, ptr noundef nonnull align 8 dereferenceable(40) %5)
          to label %6 unwind label %17

6:                                                ; preds = %1
  %7 = getelementptr inbounds nuw %"class.std::__1::recursive_timed_mutex", ptr %4, i32 0, i32 2
  %8 = load i64, ptr %7, align 8, !tbaa !44
  %9 = add i64 %8, -1
  store i64 %9, ptr %7, align 8, !tbaa !44
  %10 = icmp eq i64 %9, 0
  br i1 %10, label %11, label %16

11:                                               ; preds = %6
  %12 = getelementptr inbounds nuw %"class.std::__1::recursive_timed_mutex", ptr %4, i32 0, i32 3
  invoke void @_ZNSt3__111__thread_id7__resetB8ne210000Ev(ptr noundef nonnull align 8 dereferenceable(8) %12)
          to label %13 unwind label %17

13:                                               ; preds = %11
  invoke void @_ZNSt3__111unique_lockINS_5mutexEE6unlockB8ne210000Ev(ptr noundef nonnull align 8 dereferenceable(9) %3)
          to label %14 unwind label %17

14:                                               ; preds = %13
  %15 = getelementptr inbounds nuw %"class.std::__1::recursive_timed_mutex", ptr %4, i32 0, i32 1
  call void @_ZNSt3__118condition_variable10notify_oneEv(ptr noundef nonnull align 8 dereferenceable(48) %15) #11
  br label %16

16:                                               ; preds = %14, %6
  call void @_ZNSt3__111unique_lockINS_5mutexEED2B8ne210000Ev(ptr noundef nonnull align 8 dereferenceable(9) %3) #11
  call void @llvm.lifetime.end.p0(i64 16, ptr %3) #11
  ret void

17:                                               ; preds = %13, %11, %1
  %18 = landingpad { ptr, i32 }
          catch ptr null
  %19 = extractvalue { ptr, i32 } %18, 0
  call void @__clang_call_terminate(ptr %19) #13
  unreachable
}