; Function Attrs: mustprogress nounwind uwtable
define dso_local void @_ZNSt3__121recursive_timed_mutex6unlockEv(ptr noundef nonnull align 8 dereferenceable(104) %0) local_unnamed_addr #3 align 2 personality ptr @__gxx_personality_v0 {
  %2 = tail call noundef i32 @pthread_mutex_lock(ptr noundef nonnull align 8 dereferenceable(40) %0) #10
  %.not.i.i = icmp eq i32 %2, 0
  br i1 %.not.i.i, label %_ZNSt3__111unique_lockINS_5mutexEEC2B8ne210000ERS1_.exit, label %3

3:                                                ; preds = %1
  invoke void @_ZNSt3__120__throw_system_errorEiPKc(i32 noundef %2, ptr noundef nonnull @.str) #11
          to label %.noexc unwind label %14

.noexc:                                           ; preds = %3
  unreachable

_ZNSt3__111unique_lockINS_5mutexEEC2B8ne210000ERS1_.exit: ; preds = %1
  %4 = getelementptr inbounds nuw i8, ptr %0, i64 88
  %5 = load i64, ptr %4, align 8, !tbaa !23
  %6 = add i64 %5, -1
  store i64 %6, ptr %4, align 8, !tbaa !23
  %7 = icmp eq i64 %6, 0
  br i1 %7, label %8, label %12

8:                                                ; preds = %_ZNSt3__111unique_lockINS_5mutexEEC2B8ne210000ERS1_.exit
  %9 = getelementptr inbounds nuw i8, ptr %0, i64 96
  store i64 0, ptr %9, align 8, !tbaa !27
  %10 = tail call noundef i32 @pthread_mutex_unlock(ptr noundef nonnull align 8 dereferenceable(40) %0) #10
  %11 = getelementptr inbounds nuw i8, ptr %0, i64 40
  tail call void @_ZNSt3__118condition_variable10notify_oneEv(ptr noundef nonnull align 8 dereferenceable(48) %11) #10
  br label %_ZNSt3__111unique_lockINS_5mutexEED2B8ne210000Ev.exit

12:                                               ; preds = %_ZNSt3__111unique_lockINS_5mutexEEC2B8ne210000ERS1_.exit
  %13 = tail call noundef i32 @pthread_mutex_unlock(ptr noundef nonnull align 8 dereferenceable(40) %0) #10
  br label %_ZNSt3__111unique_lockINS_5mutexEED2B8ne210000Ev.exit

_ZNSt3__111unique_lockINS_5mutexEED2B8ne210000Ev.exit: ; preds = %8, %12
  ret void

14:                                               ; preds = %3
  %15 = landingpad { ptr, i32 }
          catch ptr null
  %16 = extractvalue { ptr, i32 } %15, 0
  tail call void @__clang_call_terminate(ptr %16) #12
  unreachable
}